; Function Attrs: nounwind uwtable
define internal noundef i32 @php_userstreamop_flush(ptr nocapture noundef readonly %0) #0 {
  %2 = alloca %struct._zval_struct, align 8
  %3 = alloca %struct._zval_struct, align 8
  %4 = getelementptr inbounds i8, ptr %0, i64 8
  %5 = load ptr, ptr %4, align 8
  %6 = tail call noalias ptr @_emalloc_40() #11
  store i32 1, ptr %6, align 4
  %7 = getelementptr inbounds i8, ptr %6, i64 4
  store i32 22, ptr %7, align 4
  %8 = getelementptr inbounds i8, ptr %6, i64 8
  store i64 0, ptr %8, align 8
  %9 = getelementptr inbounds i8, ptr %6, i64 16
  store i64 12, ptr %9, align 8
  %10 = getelementptr inbounds i8, ptr %6, i64 24
  tail call void @llvm.memcpy.p0.p0.i64(ptr noundef nonnull align 8 dereferenceable(12) %10, ptr noundef nonnull align 1 dereferenceable(12) @.str.76, i64 12, i1 false)
  %11 = getelementptr inbounds i8, ptr %6, i64 36
  store i8 0, ptr %11, align 1
  store ptr %6, ptr %2, align 8
  %12 = getelementptr inbounds i8, ptr %2, i64 8
  store i32 262, ptr %12, align 8
  %13 = getelementptr inbounds i8, ptr %5, i64 8
  %.val = load ptr, ptr %13, align 8
  %14 = call i32 @zend_call_method_if_exists(ptr noundef %.val, ptr noundef nonnull %6, ptr noundef nonnull %3, i32 noundef 0, ptr noundef null) #11
  %15 = icmp ne i32 %14, 0
  %16 = getelementptr inbounds i8, ptr %3, i64 8
  %17 = load i8, ptr %16, align 8
  %.not = icmp eq i8 %17, 0
  %or.cond = select i1 %15, i1 true, i1 %.not
  br i1 %or.cond, label %20, label %18

18:                                               ; preds = %1
  %19 = call i32 @zend_is_true(ptr noundef nonnull %3) #11
  %.not61 = icmp eq i32 %19, 0
  br i1 %.not61, label %20, label %21

20:                                               ; preds = %18, %1
  br label %21

21:                                               ; preds = %18, %20
  %.0 = phi i32 [ -1, %20 ], [ 0, %18 ]
  call void @zval_ptr_dtor(ptr noundef nonnull %3) #11
  call void @zval_ptr_dtor(ptr noundef nonnull %2) #11
  ret i32 %.0
}